target datalayout = "e-m:e-p270:32:32-p271:32:32-p272:64:64-i64:64-i128:128-f80:128-n8:16:32:64-S128"
target triple = "x86_64-unknown-linux-gnu"

%"class.llvh::StringRef" = type { ptr, i64 }
%"struct.std::atomic" = type { %"struct.std::__atomic_base" }
%"struct.std::__atomic_base" = type { ptr }
%"class.(anonymous namespace)::HelpPrinterWrapper" = type { ptr, ptr }
%"class.llvh::cl::opt.107" = type { %"class.llvh::cl::Option.base", %"class.llvh::cl::opt_storage.108", %"class.llvh::cl::parser.41" }
%"class.llvh::cl::Option.base" = type <{ ptr, i32, i16, [2 x i8], i32, i32, %"class.llvh::StringRef", %"class.llvh::StringRef", %"class.llvh::StringRef", ptr, %"class.llvh::SmallPtrSet", i8 }>
%"class.llvh::SmallPtrSet" = type { %"class.llvh::SmallPtrSetImpl.base", [4 x ptr] }
%"class.llvh::SmallPtrSetImpl.base" = type { %"class.llvh::SmallPtrSetImplBase.base" }
%"class.llvh::SmallPtrSetImplBase.base" = type <{ ptr, ptr, i32, i32, i32 }>
%"class.llvh::cl::opt_storage.108" = type { ptr, %"struct.llvh::cl::OptionValue.109" }
%"struct.llvh::cl::OptionValue.109" = type { %"struct.llvh::cl::OptionValueBase.110" }
%"struct.llvh::cl::OptionValueBase.110" = type { %"struct.llvh::cl::GenericOptionValue" }
%"struct.llvh::cl::GenericOptionValue" = type { ptr }
%"class.llvh::cl::parser.41" = type { %"class.llvh::cl::basic_parser" }
%"class.llvh::cl::basic_parser" = type { %"class.llvh::cl::basic_parser_impl" }
%"class.llvh::cl::basic_parser_impl" = type { ptr }
%"class.llvh::cl::opt.111" = type { %"class.llvh::cl::Option.base", %"class.llvh::cl::opt_storage.112", %"class.llvh::cl::parser.41" }
%"class.llvh::cl::opt_storage.112" = type { ptr, %"struct.llvh::cl::OptionValue.113" }
%"struct.llvh::cl::OptionValue.113" = type { %"struct.llvh::cl::OptionValueBase.114" }
%"struct.llvh::cl::OptionValueBase.114" = type { %"struct.llvh::cl::GenericOptionValue" }
%"class.llvh::cl::Option" = type <{ ptr, i32, i16, [2 x i8], i32, i32, %"class.llvh::StringRef", %"class.llvh::StringRef", %"class.llvh::StringRef", ptr, %"class.llvh::SmallPtrSet", i8, [7 x i8] }>
%"class.std::__cxx11::basic_string" = type { %"struct.std::__cxx11::basic_string<char>::_Alloc_hider", i64, %union.anon }
%"struct.std::__cxx11::basic_string<char>::_Alloc_hider" = type { ptr }
%union.anon = type { i64, [8 x i8] }
%"class.(anonymous namespace)::CommandLineParser" = type { %"class.std::__cxx11::basic_string", %"class.llvh::StringRef", %"class.std::vector", %"class.llvh::SmallPtrSet.45", %"class.llvh::SmallPtrSet", ptr }
%"class.std::vector" = type { %"struct.std::_Vector_base" }
%"struct.std::_Vector_base" = type { %"struct.std::_Vector_base<llvh::StringRef, std::allocator<llvh::StringRef>>::_Vector_impl" }
%"struct.std::_Vector_base<llvh::StringRef, std::allocator<llvh::StringRef>>::_Vector_impl" = type { %"struct.std::_Vector_base<llvh::StringRef, std::allocator<llvh::StringRef>>::_Vector_impl_data" }
%"struct.std::_Vector_base<llvh::StringRef, std::allocator<llvh::StringRef>>::_Vector_impl_data" = type { ptr, ptr, ptr }
%"class.llvh::SmallPtrSet.45" = type { %"class.llvh::SmallPtrSetImpl.base.47", [16 x ptr] }
%"class.llvh::SmallPtrSetImpl.base.47" = type { %"class.llvh::SmallPtrSetImplBase.base" }
%"class.llvh::ManagedStaticBase" = type { %"struct.std::atomic", ptr, ptr }
%"class.llvh::SmallPtrSetImplBase" = type <{ ptr, ptr, i32, i32, i32, [4 x i8] }>

@_ZL4HLOp = internal global %"class.llvh::cl::opt.107" zeroinitializer, align 8
@_ZL12GlobalParser = internal global { %"struct.std::atomic", ptr, ptr } zeroinitializer, align 8

; Function Attrs: mustprogress nounwind uwtable
define linkonce_odr noundef i32 @_ZStanSt12memory_orderSt23__memory_order_modifier(i32 noundef %__m, i32 noundef %__mod) #0 comdat {
entry:
  %__m.addr = alloca i32, align 4
  %__mod.addr = alloca i32, align 4
  store i32 %__m, ptr %__m.addr, align 4
  store i32 %__mod, ptr %__mod.addr, align 4
  %0 = load i32, ptr %__m.addr, align 4
  %1 = load i32, ptr %__mod.addr, align 4
  %and = and i32 %0, %1
  ret i32 %and
}

; Function Attrs: mustprogress nounwind uwtable
define linkonce_odr noundef ptr @_ZNKSt6atomicIPvE4loadESt12memory_order(ptr noundef nonnull align 8 dereferenceable(8) %this, i32 noundef %__m) #0 comdat align 2 {
entry:
  %this.addr.i = alloca ptr, align 8
  %__m.addr.i = alloca i32, align 4
  %__b.i = alloca i32, align 4
  %atomic-temp.i = alloca ptr, align 8
  %this.addr = alloca ptr, align 8
  %__m.addr = alloca i32, align 4
  store ptr %this, ptr %this.addr, align 8
  store i32 %__m, ptr %__m.addr, align 4
  %this1 = load ptr, ptr %this.addr, align 8
  %_M_b = getelementptr inbounds %"struct.std::atomic", ptr %this1, i32 0, i32 0
  %0 = load i32, ptr %__m.addr, align 4
  store ptr %_M_b, ptr %this.addr.i, align 8
  store i32 %0, ptr %__m.addr.i, align 4
  %this1.i = load ptr, ptr %this.addr.i, align 8
  %1 = load i32, ptr %__m.addr.i, align 4
  %call.i = call noundef i32 @_ZStanSt12memory_orderSt23__memory_order_modifier(i32 noundef %1, i32 noundef 65535)
  store i32 %call.i, ptr %__b.i, align 4
  %2 = load i32, ptr %__m.addr.i, align 4
  switch i32 %2, label %monotonic.i [
    i32 1, label %acquire.i
    i32 2, label %acquire.i
    i32 5, label %seqcst.i
  ]

monotonic.i:                                      ; preds = %entry
  %3 = load atomic i64, ptr %this1.i monotonic, align 8
  store i64 %3, ptr %atomic-temp.i, align 8
  br label %_ZNKSt13__atomic_baseIPvE4loadESt12memory_order.exit

acquire.i:                                        ; preds = %entry, %entry
  %4 = load atomic i64, ptr %this1.i acquire, align 8
  store i64 %4, ptr %atomic-temp.i, align 8
  br label %_ZNKSt13__atomic_baseIPvE4loadESt12memory_order.exit

seqcst.i:                                         ; preds = %entry
  %5 = load atomic i64, ptr %this1.i seq_cst, align 8
  store i64 %5, ptr %atomic-temp.i, align 8
  br label %_ZNKSt13__atomic_baseIPvE4loadESt12memory_order.exit

_ZNKSt13__atomic_baseIPvE4loadESt12memory_order.exit: ; preds = %seqcst.i, %acquire.i, %monotonic.i
  %6 = load ptr, ptr %atomic-temp.i, align 8
  ret ptr %6
}

; Function Attrs: mustprogress nounwind uwtable
define internal noundef nonnull align 8 dereferenceable(304) ptr @_ZN4llvh13ManagedStaticIN12_GLOBAL__N_117CommandLineParserENS_14object_creatorIS2_EENS_14object_deleterIS2_EEEdeEv(ptr noundef nonnull align 8 dereferenceable(24) %this) #0 align 2 {
entry:
  %this.addr = alloca ptr, align 8
  %Tmp = alloca ptr, align 8
  store ptr %this, ptr %this.addr, align 8
  %this1 = load ptr, ptr %this.addr, align 8
  %Ptr = getelementptr inbounds %"class.llvh::ManagedStaticBase", ptr %this1, i32 0, i32 0
  %call = call noundef ptr @_ZNKSt6atomicIPvE4loadESt12memory_order(ptr noundef nonnull align 8 dereferenceable(8) %Ptr, i32 noundef 2) #6
  store ptr %call, ptr %Tmp, align 8
  %0 = load ptr, ptr %Tmp, align 8
  %tobool = icmp ne ptr %0, null
  br i1 %tobool, label %if.end, label %if.then

if.then:                                          ; preds = %entry
  call void @_ZNK4llvh17ManagedStaticBase21RegisterManagedStaticEPFPvvEPFvS1_E(ptr noundef nonnull align 8 dereferenceable(24) %this1, ptr noundef @_ZN4llvh14object_creatorIN12_GLOBAL__N_117CommandLineParserEE4callEv, ptr noundef @_ZN4llvh14object_deleterIN12_GLOBAL__N_117CommandLineParserEE4callEPv)
  br label %if.end

if.end:                                           ; preds = %if.then, %entry
  %Ptr2 = getelementptr inbounds %"class.llvh::ManagedStaticBase", ptr %this1, i32 0, i32 0
  %call3 = call noundef ptr @_ZNKSt6atomicIPvE4loadESt12memory_order(ptr noundef nonnull align 8 dereferenceable(8) %Ptr2, i32 noundef 0) #6
  ret ptr %call3
}

; Function Attrs: mustprogress nounwind uwtable
define internal void @_ZN4llvh2cl15OptionValueBaseIN12_GLOBAL__N_118HelpPrinterWrapperELb1EE8setValueIbEEvRKT_(ptr noundef nonnull align 8 dereferenceable(8) %this, ptr noundef nonnull align 1 dereferenceable(1) %0) #0 align 2 {
entry:
  %this.addr = alloca ptr, align 8
  %.addr = alloca ptr, align 8
  store ptr %this, ptr %this.addr, align 8
  store ptr %0, ptr %.addr, align 8
  ret void
}

; Function Attrs: mustprogress nounwind uwtable
define internal void @_ZN12_GLOBAL__N_111HelpPrinteraSEb(ptr noundef nonnull align 8 dereferenceable(9) %this, i1 noundef zeroext %Value) #0 align 2 {
entry:
  %this.addr = alloca ptr, align 8
  %Value.addr = alloca i8, align 1
  store ptr %this, ptr %this.addr, align 8
  %frombool = zext i1 %Value to i8
  store i8 %frombool, ptr %Value.addr, align 1
  %this1 = load ptr, ptr %this.addr, align 8
  %0 = load i8, ptr %Value.addr, align 1
  %tobool = trunc i8 %0 to i1
  br i1 %tobool, label %if.end, label %if.then

if.then:                                          ; preds = %entry
  ret void

if.end:                                           ; preds = %entry
  call void @_ZN12_GLOBAL__N_111HelpPrinter9printHelpEv(ptr noundef nonnull align 8 dereferenceable(9) %this1)
  call void @exit(i32 noundef 0) #15
  unreachable
}

; Function Attrs: mustprogress nounwind uwtable
define linkonce_odr hidden void @_ZN4llvh2cl6Option13setHiddenFlagENS0_12OptionHiddenE(ptr noundef nonnull align 8 dereferenceable(145) %this, i32 noundef %Val) #0 comdat align 2 {
entry:
  %this.addr = alloca ptr, align 8
  %Val.addr = alloca i32, align 4
  store ptr %this, ptr %this.addr, align 8
  store i32 %Val, ptr %Val.addr, align 4
  %this1 = load ptr, ptr %this.addr, align 8
  %0 = load i32, ptr %Val.addr, align 4
  %HiddenFlag = getelementptr inbounds %"class.llvh::cl::Option", ptr %this1, i32 0, i32 2
  %1 = trunc i32 %0 to i16
  %bf.load = load i16, ptr %HiddenFlag, align 4
  %bf.value = and i16 %1, 3
  %bf.shl = shl i16 %bf.value, 5
  %bf.clear = and i16 %bf.load, -97
  %bf.set = or i16 %bf.clear, %bf.shl
  store i16 %bf.set, ptr %HiddenFlag, align 4
  ret void
}

; Function Attrs: mustprogress nounwind uwtable
define linkonce_odr hidden noundef i32 @_ZNK4llvh19SmallPtrSetImplBase4sizeEv(ptr noundef nonnull align 8 dereferenceable(28) %this) #0 comdat align 2 {
entry:
  %this.addr = alloca ptr, align 8
  store ptr %this, ptr %this.addr, align 8
  %this1 = load ptr, ptr %this.addr, align 8
  %NumNonEmpty = getelementptr inbounds %"class.llvh::SmallPtrSetImplBase", ptr %this1, i32 0, i32 3
  %0 = load i32, ptr %NumNonEmpty, align 4
  %NumTombstones = getelementptr inbounds %"class.llvh::SmallPtrSetImplBase", ptr %this1, i32 0, i32 4
  %1 = load i32, ptr %NumTombstones, align 8
  %sub = sub i32 %0, %1
  ret i32 %sub
}

; Function Attrs: mustprogress nounwind uwtable
define internal noundef ptr @_ZN4llvh13ManagedStaticIN12_GLOBAL__N_117CommandLineParserENS_14object_creatorIS2_EENS_14object_deleterIS2_EEEptEv(ptr noundef nonnull align 8 dereferenceable(24) %this) #0 align 2 {
entry:
  %this.addr = alloca ptr, align 8
  store ptr %this, ptr %this.addr, align 8
  %this1 = load ptr, ptr %this.addr, align 8
  %call = call noundef nonnull align 8 dereferenceable(304) ptr @_ZN4llvh13ManagedStaticIN12_GLOBAL__N_117CommandLineParserENS_14object_creatorIS2_EENS_14object_deleterIS2_EEEdeEv(ptr noundef nonnull align 8 dereferenceable(24) %this1)
  ret ptr %call
}

; Function Attrs: mustprogress nounwind uwtable
define internal noundef nonnull align 8 dereferenceable(8) ptr @_ZN4llvh2cl11OptionValueIN12_GLOBAL__N_118HelpPrinterWrapperEEaSIbEERS4_RKT_(ptr noundef nonnull align 8 dereferenceable(8) %this, ptr noundef nonnull align 1 dereferenceable(1) %V) #0 align 2 {
entry:
  %this.addr = alloca ptr, align 8
  %V.addr = alloca ptr, align 8
  store ptr %this, ptr %this.addr, align 8
  store ptr %V, ptr %V.addr, align 8
  %this1 = load ptr, ptr %this.addr, align 8
  %0 = load ptr, ptr %V.addr, align 8
  call void @_ZN4llvh2cl15OptionValueBaseIN12_GLOBAL__N_118HelpPrinterWrapperELb1EE8setValueIbEEvRKT_(ptr noundef nonnull align 8 dereferenceable(8) %this1, ptr noundef nonnull align 1 dereferenceable(1) %0)
  ret ptr %this1
}

; Function Attrs: mustprogress nounwind uwtable
define internal void @_ZN12_GLOBAL__N_118HelpPrinterWrapperaSEb(ptr noundef nonnull align 8 dereferenceable(16) %this, i1 noundef zeroext %Value) #0 align 2 {
entry:
  %this.addr = alloca ptr, align 8
  %Value.addr = alloca i8, align 1
  store ptr %this, ptr %this.addr, align 8
  %frombool = zext i1 %Value to i8
  store i8 %frombool, ptr %Value.addr, align 1
  %this1 = load ptr, ptr %this.addr, align 8
  %0 = load i8, ptr %Value.addr, align 1
  %tobool = trunc i8 %0 to i1
  br i1 %tobool, label %if.end, label %if.then

if.then:                                          ; preds = %entry
  br label %if.end4

if.end:                                           ; preds = %entry
  %call = call noundef ptr @_ZN4llvh13ManagedStaticIN12_GLOBAL__N_117CommandLineParserENS_14object_creatorIS2_EENS_14object_deleterIS2_EEEptEv(ptr noundef nonnull align 8 dereferenceable(24) @_ZL12GlobalParser)
  %RegisteredOptionCategories = getelementptr inbounds %"class.(anonymous namespace)::CommandLineParser", ptr %call, i32 0, i32 3
  %call2 = call noundef i32 @_ZNK4llvh19SmallPtrSetImplBase4sizeEv(ptr noundef nonnull align 8 dereferenceable(28) %RegisteredOptionCategories)
  %cmp = icmp ugt i32 %call2, 1
  br i1 %cmp, label %if.then3, label %if.else

if.then3:                                         ; preds = %if.end
  call void @_ZN4llvh2cl6Option13setHiddenFlagENS0_12OptionHiddenE(ptr noundef nonnull align 8 dereferenceable(145) @_ZL4HLOp, i32 noundef 0)
  %CategorizedPrinter = getelementptr inbounds %"class.(anonymous namespace)::HelpPrinterWrapper", ptr %this1, i32 0, i32 1
  %1 = load ptr, ptr %CategorizedPrinter, align 8
  call void @_ZN12_GLOBAL__N_111HelpPrinteraSEb(ptr noundef nonnull align 8 dereferenceable(9) %1, i1 noundef zeroext true)
  br label %if.end4

if.else:                                          ; preds = %if.end
  %UncategorizedPrinter = getelementptr inbounds %"class.(anonymous namespace)::HelpPrinterWrapper", ptr %this1, i32 0, i32 0
  %2 = load ptr, ptr %UncategorizedPrinter, align 8
  call void @_ZN12_GLOBAL__N_111HelpPrinteraSEb(ptr noundef nonnull align 8 dereferenceable(9) %2, i1 noundef zeroext true)
  br label %if.end4

if.end4:                                          ; preds = %if.else, %if.then3, %if.then
  ret void
}

; Function Attrs: mustprogress nounwind uwtable
define internal void @_ZNK4llvh2cl11opt_storageIN12_GLOBAL__N_118HelpPrinterWrapperELb1ELb1EE14check_locationEv(ptr noundef nonnull align 8 dereferenceable(16) %this) #0 align 2 {
entry:
  %this.addr = alloca ptr, align 8
  store ptr %this, ptr %this.addr, align 8
  ret void
}

; Function Attrs: mustprogress nounwind uwtable
define linkonce_odr hidden void @_ZN4llvh2cl6Option11setPositionEj(ptr noundef nonnull align 8 dereferenceable(145) %this, i32 noundef %pos) #0 comdat align 2 {
entry:
  %this.addr = alloca ptr, align 8
  %pos.addr = alloca i32, align 4
  store ptr %this, ptr %this.addr, align 8
  store i32 %pos, ptr %pos.addr, align 4
  %this1 = load ptr, ptr %this.addr, align 8
  %0 = load i32, ptr %pos.addr, align 4
  %Position = getelementptr inbounds %"class.llvh::cl::Option", ptr %this1, i32 0, i32 4
  store i32 %0, ptr %Position, align 8
  ret void
}

; Function Attrs: mustprogress nounwind uwtable
define internal void @_ZN4llvh2cl11opt_storageIN12_GLOBAL__N_118HelpPrinterWrapperELb1ELb1EE8setValueIbEEvRKT_b(ptr noundef nonnull align 8 dereferenceable(16) %this, ptr noundef nonnull align 1 dereferenceable(1) %V, i1 noundef zeroext %initial) #0 align 2 {
entry:
  %this.addr = alloca ptr, align 8
  %V.addr = alloca ptr, align 8
  %initial.addr = alloca i8, align 1
  store ptr %this, ptr %this.addr, align 8
  store ptr %V, ptr %V.addr, align 8
  %frombool = zext i1 %initial to i8
  store i8 %frombool, ptr %initial.addr, align 1
  %this1 = load ptr, ptr %this.addr, align 8
  call void @_ZNK4llvh2cl11opt_storageIN12_GLOBAL__N_118HelpPrinterWrapperELb1ELb1EE14check_locationEv(ptr noundef nonnull align 8 dereferenceable(16) %this1)
  %0 = load ptr, ptr %V.addr, align 8
  %1 = load i8, ptr %0, align 1
  %tobool = trunc i8 %1 to i1
  %Location = getelementptr inbounds %"class.llvh::cl::opt_storage.112", ptr %this1, i32 0, i32 0
  %2 = load ptr, ptr %Location, align 8
  call void @_ZN12_GLOBAL__N_118HelpPrinterWrapperaSEb(ptr noundef nonnull align 8 dereferenceable(16) %2, i1 noundef zeroext %tobool)
  %3 = load i8, ptr %initial.addr, align 1
  %tobool2 = trunc i8 %3 to i1
  br i1 %tobool2, label %if.then, label %if.end

if.then:                                          ; preds = %entry
  %4 = load ptr, ptr %V.addr, align 8
  %Default = getelementptr inbounds %"class.llvh::cl::opt_storage.112", ptr %this1, i32 0, i32 1
  %call = call noundef nonnull align 8 dereferenceable(8) ptr @_ZN4llvh2cl11OptionValueIN12_GLOBAL__N_118HelpPrinterWrapperEEaSIbEERS4_RKT_(ptr noundef nonnull align 8 dereferenceable(8) %Default, ptr noundef nonnull align 1 dereferenceable(1) %4)
  br label %if.end

if.end:                                           ; preds = %if.then, %entry
  ret void
}

; Function Attrs: mustprogress nounwind uwtable
define internal noundef zeroext i1 @_ZN4llvh2cl3optIN12_GLOBAL__N_118HelpPrinterWrapperELb1ENS0_6parserIbEEE16handleOccurrenceEjNS_9StringRefES7_(ptr noundef nonnull align 8 dereferenceable(176) %this, i32 noundef %pos, ptr %ArgName.coerce0, i64 %ArgName.coerce1, ptr %Arg.coerce0, i64 %Arg.coerce1) unnamed_addr #0 align 2 {
entry:
  %retval = alloca i1, align 1
  %ArgName = alloca %"class.llvh::StringRef", align 8
  %Arg = alloca %"class.llvh::StringRef", align 8
  %this.addr = alloca ptr, align 8
  %pos.addr = alloca i32, align 4
  %Val = alloca i8, align 1
  %agg.tmp = alloca %"class.llvh::StringRef", align 8
  %agg.tmp2 = alloca %"class.llvh::StringRef", align 8
  %0 = getelementptr inbounds { ptr, i64 }, ptr %ArgName, i32 0, i32 0
  store ptr %ArgName.coerce0, ptr %0, align 8
  %1 = getelementptr inbounds { ptr, i64 }, ptr %ArgName, i32 0, i32 1
  store i64 %ArgName.coerce1, ptr %1, align 8
  %2 = getelementptr inbounds { ptr, i64 }, ptr %Arg, i32 0, i32 0
  store ptr %Arg.coerce0, ptr %2, align 8
  %3 = getelementptr inbounds { ptr, i64 }, ptr %Arg, i32 0, i32 1
  store i64 %Arg.coerce1, ptr %3, align 8
  store ptr %this, ptr %this.addr, align 8
  store i32 %pos, ptr %pos.addr, align 4
  %this1 = load ptr, ptr %this.addr, align 8
  store i8 0, ptr %Val, align 1
  %Parser = getelementptr inbounds %"class.llvh::cl::opt.111", ptr %this1, i32 0, i32 2
  call void @llvm.memcpy.p0.p0.i64(ptr align 8 %agg.tmp, ptr align 8 %ArgName, i64 16, i1 false)
  call void @llvm.memcpy.p0.p0.i64(ptr align 8 %agg.tmp2, ptr align 8 %Arg, i64 16, i1 false)
  %4 = getelementptr inbounds { ptr, i64 }, ptr %agg.tmp, i32 0, i32 0
  %5 = load ptr, ptr %4, align 8
  %6 = getelementptr inbounds { ptr, i64 }, ptr %agg.tmp, i32 0, i32 1
  %7 = load i64, ptr %6, align 8
  %8 = getelementptr inbounds { ptr, i64 }, ptr %agg.tmp2, i32 0, i32 0
  %9 = load ptr, ptr %8, align 8
  %10 = getelementptr inbounds { ptr, i64 }, ptr %agg.tmp2, i32 0, i32 1
  %11 = load i64, ptr %10, align 8
  %call = call noundef zeroext i1 @_ZN4llvh2cl6parserIbE5parseERNS0_6OptionENS_9StringRefES5_Rb(ptr noundef nonnull align 8 dereferenceable(8) %Parser, ptr noundef nonnull align 8 dereferenceable(145) %this1, ptr %5, i64 %7, ptr %9, i64 %11, ptr noundef nonnull align 1 dereferenceable(1) %Val)
  br i1 %call, label %if.then, label %if.end

if.then:                                          ; preds = %entry
  store i1 true, ptr %retval, align 1
  br label %return

if.end:                                           ; preds = %entry
  %add.ptr = getelementptr inbounds i8, ptr %this1, i64 152
  call void @_ZN4llvh2cl11opt_storageIN12_GLOBAL__N_118HelpPrinterWrapperELb1ELb1EE8setValueIbEEvRKT_b(ptr noundef nonnull align 8 dereferenceable(16) %add.ptr, ptr noundef nonnull align 1 dereferenceable(1) %Val, i1 noundef zeroext false)
  %12 = load i32, ptr %pos.addr, align 4
  call void @_ZN4llvh2cl6Option11setPositionEj(ptr noundef nonnull align 8 dereferenceable(145) %this1, i32 noundef %12)
  store i1 false, ptr %retval, align 1
  br label %return

return:                                           ; preds = %if.end, %if.then
  %13 = load i1, ptr %retval, align 1
  ret i1 %13
}