; Function Attrs: mustprogress nounwind uwtable
define internal noundef zeroext i1 @_ZN4llvh2cl3optIN12_GLOBAL__N_118HelpPrinterWrapperELb1ENS0_6parserIbEEE16handleOccurrenceEjNS_9StringRefES7_(ptr nocapture noundef nonnull align 8 dereferenceable(176) %this, i32 noundef %pos, ptr nocapture readnone %ArgName.coerce0, i64 %ArgName.coerce1, ptr %Arg.coerce0, i64 %Arg.coerce1) unnamed_addr #0 align 2 {
entry:
  %Val = alloca i8, align 1
  store i8 0, ptr %Val, align 1
  %call = call noundef zeroext i1 @_ZN4llvh2cl6parserIbE5parseERNS0_6OptionENS_9StringRefES5_Rb(ptr nonnull align 8 poison, ptr noundef nonnull align 8 dereferenceable(145) %this, ptr poison, i64 poison, ptr %Arg.coerce0, i64 %Arg.coerce1, ptr noundef nonnull align 1 dereferenceable(1) %Val)
  br i1 %call, label %return, label %if.end

if.end:                                           ; preds = %entry
  %add.ptr = getelementptr inbounds i8, ptr %this, i64 152
  %add.ptr.val = load ptr, ptr %add.ptr, align 8
  %Val.val = load i8, ptr %Val, align 1
  %0 = and i8 %Val.val, 1
  %tobool.not.i = icmp eq i8 %0, 0
  br i1 %tobool.not.i, label %_ZN4llvh2cl11opt_storageIN12_GLOBAL__N_118HelpPrinterWrapperELb1ELb1EE8setValueIbEEvRKT_b.exit, label %if.end.i.i

if.end.i.i:                                       ; preds = %if.end
  %1 = load atomic i64, ptr @_ZL12GlobalParser acquire, align 8
  %tobool.not.i.i.i.i = icmp eq i64 %1, 0
  br i1 %tobool.not.i.i.i.i, label %if.then.i.i.i.i, label %_ZN4llvh13ManagedStaticIN12_GLOBAL__N_117CommandLineParserENS_14object_creatorIS2_EENS_14object_deleterIS2_EEEptEv.exit.i.i

if.then.i.i.i.i:                                  ; preds = %if.end.i.i
  tail call void @_ZNK4llvh17ManagedStaticBase21RegisterManagedStaticEPFPvvEPFvS1_E(ptr noundef nonnull align 8 dereferenceable(24) @_ZL12GlobalParser, ptr noundef nonnull @_ZN4llvh14object_creatorIN12_GLOBAL__N_117CommandLineParserEE4callEv, ptr noundef nonnull @_ZN4llvh14object_deleterIN12_GLOBAL__N_117CommandLineParserEE4callEPv) #27
  br label %_ZN4llvh13ManagedStaticIN12_GLOBAL__N_117CommandLineParserENS_14object_creatorIS2_EENS_14object_deleterIS2_EEEptEv.exit.i.i

_ZN4llvh13ManagedStaticIN12_GLOBAL__N_117CommandLineParserENS_14object_creatorIS2_EENS_14object_deleterIS2_EEEptEv.exit.i.i: ; preds = %if.then.i.i.i.i, %if.end.i.i
  %2 = load atomic i64, ptr @_ZL12GlobalParser monotonic, align 8
  %atomic-temp.i.0.i1.i.i.i.i = inttoptr i64 %2 to ptr
  %NumNonEmpty.i.i.i = getelementptr inbounds i8, ptr %atomic-temp.i.0.i1.i.i.i.i, i64 92
  %3 = load i32, ptr %NumNonEmpty.i.i.i, align 4
  %NumTombstones.i.i.i = getelementptr inbounds i8, ptr %atomic-temp.i.0.i1.i.i.i.i, i64 96
  %4 = load i32, ptr %NumTombstones.i.i.i, align 8
  %sub.i.i.i = sub i32 %3, %4
  %cmp.i.i = icmp ugt i32 %sub.i.i.i, 1
  br i1 %cmp.i.i, label %if.then3.i.i, label %if.else.i.i

if.then3.i.i:                                     ; preds = %_ZN4llvh13ManagedStaticIN12_GLOBAL__N_117CommandLineParserENS_14object_creatorIS2_EENS_14object_deleterIS2_EEEptEv.exit.i.i
  %bf.load.i.i.i = load i16, ptr getelementptr inbounds (%"class.llvh::cl::opt.107", ptr @_ZL4HLOp, i64 0, i32 0, i32 2), align 4
  %bf.clear.i.i.i = and i16 %bf.load.i.i.i, -97
  store i16 %bf.clear.i.i.i, ptr getelementptr inbounds (%"class.llvh::cl::opt.107", ptr @_ZL4HLOp, i64 0, i32 0, i32 2), align 4
  %CategorizedPrinter.i.i = getelementptr inbounds i8, ptr %add.ptr.val, i64 8
  %5 = load ptr, ptr %CategorizedPrinter.i.i, align 8
  tail call fastcc void @_ZN12_GLOBAL__N_111HelpPrinter9printHelpEv(ptr noundef nonnull align 8 dereferenceable(9) %5)
  tail call void @exit(i32 noundef 0) #28
  unreachable

if.else.i.i:                                      ; preds = %_ZN4llvh13ManagedStaticIN12_GLOBAL__N_117CommandLineParserENS_14object_creatorIS2_EENS_14object_deleterIS2_EEEptEv.exit.i.i
  %6 = load ptr, ptr %add.ptr.val, align 8
  tail call fastcc void @_ZN12_GLOBAL__N_111HelpPrinter9printHelpEv(ptr noundef nonnull align 8 dereferenceable(9) %6)
  tail call void @exit(i32 noundef 0) #28
  unreachable

_ZN4llvh2cl11opt_storageIN12_GLOBAL__N_118HelpPrinterWrapperELb1ELb1EE8setValueIbEEvRKT_b.exit: ; preds = %if.end
  %Position.i = getelementptr inbounds i8, ptr %this, i64 16
  store i32 %pos, ptr %Position.i, align 8
  br label %return

return:                                           ; preds = %entry, %_ZN4llvh2cl11opt_storageIN12_GLOBAL__N_118HelpPrinterWrapperELb1ELb1EE8setValueIbEEvRKT_b.exit
  ret i1 %call
}